target datalayout = "e-m:e-p270:32:32-p271:32:32-p272:64:64-i64:64-i128:128-f80:128-n8:16:32:64-S128"
target triple = "x86_64-pc-linux-gnu"

; Function Attrs: mustprogress nounwind uwtable
define dso_local noundef zeroext i1 @_Z13SelectSMETileRjj(ptr noundef nonnull align 4 dereferenceable(4) %0, i32 noundef %1) #0 {
  %3 = alloca i1, align 1
  %4 = alloca ptr, align 8
  %5 = alloca i32, align 4
  store ptr %0, ptr %4, align 8
  store i32 %1, ptr %5, align 4
  %6 = load ptr, ptr %4, align 8
  %7 = load i32, ptr %6, align 4
  switch i32 %7, label %8 [
    i32 13, label %9
    i32 298, label %9
    i32 307, label %14
    i32 325, label %19
    i32 299, label %24
  ]

8:                                                ; preds = %2
  store i1 false, ptr %3, align 1
  br label %34

9:                                                ; preds = %2, %2
  %10 = load i32, ptr %5, align 4
  %11 = icmp eq i32 %10, 0
  br i1 %11, label %12, label %13

12:                                               ; preds = %9
  br label %29

13:                                               ; preds = %9
  store i1 false, ptr %3, align 1
  br label %34

14:                                               ; preds = %2
  %15 = load i32, ptr %5, align 4
  %16 = icmp ule i32 %15, 1
  br i1 %16, label %17, label %18

17:                                               ; preds = %14
  br label %29

18:                                               ; preds = %14
  store i1 false, ptr %3, align 1
  br label %34

19:                                               ; preds = %2
  %20 = load i32, ptr %5, align 4
  %21 = icmp ule i32 %20, 3
  br i1 %21, label %22, label %23

22:                                               ; preds = %19
  br label %29

23:                                               ; preds = %19
  store i1 false, ptr %3, align 1
  br label %34

24:                                               ; preds = %2
  %25 = load i32, ptr %5, align 4
  %26 = icmp ule i32 %25, 7
  br i1 %26, label %27, label %28

27:                                               ; preds = %24
  br label %29

28:                                               ; preds = %24
  store i1 false, ptr %3, align 1
  br label %34

29:                                               ; preds = %27, %22, %17, %12
  %30 = load i32, ptr %5, align 4
  %31 = load ptr, ptr %4, align 8
  %32 = load i32, ptr %31, align 4
  %33 = add i32 %32, %30
  store i32 %33, ptr %31, align 4
  store i1 true, ptr %3, align 1
  br label %34

34:                                               ; preds = %29, %28, %23, %18, %13, %8
  %35 = load i1, ptr %3, align 1
  ret i1 %35
}