; Function Attrs: mustprogress nofree norecurse nosync nounwind willreturn memory(argmem: readwrite) uwtable
define dso_local noundef zeroext i1 @_Z13SelectSMETileRjj(ptr nocapture noundef nonnull align 4 dereferenceable(4) %0, i32 noundef %1) local_unnamed_addr #1 {
  %3 = load i32, ptr %0, align 4
  switch i32 %3, label %14 [
    i32 13, label %4
    i32 298, label %4
    i32 307, label %6
    i32 325, label %8
    i32 299, label %10
  ]

4:                                                ; preds = %2, %2
  %5 = icmp eq i32 %1, 0
  br i1 %5, label %12, label %14

6:                                                ; preds = %2
  %7 = icmp ult i32 %1, 2
  br i1 %7, label %12, label %14

8:                                                ; preds = %2
  %9 = icmp ult i32 %1, 4
  br i1 %9, label %12, label %14

10:                                               ; preds = %2
  %11 = icmp ult i32 %1, 8
  br i1 %11, label %12, label %14

12:                                               ; preds = %10, %8, %6, %4
  %13 = add nuw nsw i32 %3, %1
  store i32 %13, ptr %0, align 4
  br label %14

14:                                               ; preds = %10, %8, %6, %4, %2, %12
  %.0 = phi i1 [ true, %12 ], [ false, %2 ], [ false, %4 ], [ false, %6 ], [ false, %8 ], [ false, %10 ]
  ret i1 %.0
}